; Function Attrs: mustprogress uwtable
define hidden void @_ZN2cv3hal12cpu_baseline5mul8sEPKamS3_mPamiiPKd(ptr nocapture noundef readonly %0, i64 noundef %1, ptr nocapture noundef readonly %2, i64 noundef %3, ptr nocapture noundef writeonly %4, i64 noundef %5, i32 noundef %6, i32 noundef %7, ptr nocapture noundef readonly %8) local_unnamed_addr #3 personality ptr @__gxx_personality_v0 {
  %10 = alloca %"class.cv::utils::trace::details::Region", align 8
  call void @_ZN2cv5utils5trace7details6RegionC1ERKNS3_21LocationStaticStorageE(ptr noundef nonnull align 8 dereferenceable(12) %10, ptr noundef nonnull align 8 dereferenceable(32) @_ZZN2cv3hal12cpu_baseline5mul8sEPKamS3_mPamiiPKdE26__cv_trace_location_fn1559)
  %.val = load double, ptr %8, align 8
  %11 = fptrunc double %.val to float
  %12 = fadd float %11, -1.000000e+00
  %13 = call noundef float @llvm.fabs.f32(float %12)
  %14 = fcmp ugt float %13, 0x3E80000000000000
  %.not24.i.i = icmp ne i32 %7, 0
  %15 = icmp sgt i32 %6, 0
  %or.cond.i16.i = and i1 %15, %.not24.i.i
  br i1 %14, label %33, label %16

16:                                               ; preds = %9
  br i1 %or.cond.i16.i, label %.preheader.us.preheader.i.i, label %_ZN2cv3hal12cpu_baselineL8mul_loopIaNS_12hal_baseline5v_regIaLi16EEEEEvPKT_mS8_mPS6_miiPKd.exit

.preheader.us.preheader.i.i:                      ; preds = %16
  %wide.trip.count.i.i = zext nneg i32 %6 to i64
  br label %.preheader.us.i.i

.preheader.us.i.i:                                ; preds = %._crit_edge.us.i.i, %.preheader.us.preheader.i.i
  %.in.i.i = phi i32 [ %29, %._crit_edge.us.i.i ], [ %7, %.preheader.us.preheader.i.i ]
  %.01926.us.i.i = phi ptr [ %30, %._crit_edge.us.i.i ], [ %0, %.preheader.us.preheader.i.i ]
  %.02025.us.i.i = phi ptr [ %32, %._crit_edge.us.i.i ], [ %4, %.preheader.us.preheader.i.i ]
  %.02124.us.i.i = phi ptr [ %31, %._crit_edge.us.i.i ], [ %2, %.preheader.us.preheader.i.i ]
  br label %17

17:                                               ; preds = %17, %.preheader.us.i.i
  %indvars.iv.i.i = phi i64 [ 0, %.preheader.us.i.i ], [ %indvars.iv.next.i.i, %17 ]
  %18 = getelementptr inbounds i8, ptr %.01926.us.i.i, i64 %indvars.iv.i.i
  %19 = load i8, ptr %18, align 1
  %20 = getelementptr inbounds i8, ptr %.02124.us.i.i, i64 %indvars.iv.i.i
  %21 = load i8, ptr %20, align 1
  %22 = sext i8 %19 to i32
  %23 = sext i8 %21 to i32
  %24 = mul nsw i32 %23, %22
  %25 = call i32 @llvm.smax.i32(i32 %24, i32 -128)
  %26 = call i32 @llvm.smin.i32(i32 %25, i32 127)
  %27 = trunc nsw i32 %26 to i8
  %28 = getelementptr inbounds i8, ptr %.02025.us.i.i, i64 %indvars.iv.i.i
  store i8 %27, ptr %28, align 1
  %indvars.iv.next.i.i = add nuw nsw i64 %indvars.iv.i.i, 1
  %exitcond.not.i.i = icmp eq i64 %indvars.iv.next.i.i, %wide.trip.count.i.i
  br i1 %exitcond.not.i.i, label %._crit_edge.us.i.i, label %17, !llvm.loop !152

._crit_edge.us.i.i:                               ; preds = %17
  %29 = add nsw i32 %.in.i.i, -1
  %30 = getelementptr inbounds i8, ptr %.01926.us.i.i, i64 %1
  %31 = getelementptr inbounds i8, ptr %.02124.us.i.i, i64 %3
  %32 = getelementptr inbounds i8, ptr %.02025.us.i.i, i64 %5
  %.not.us.i.i = icmp eq i32 %29, 0
  br i1 %.not.us.i.i, label %_ZN2cv3hal12cpu_baselineL8mul_loopIaNS_12hal_baseline5v_regIaLi16EEEEEvPKT_mS8_mPS6_miiPKd.exit, label %.preheader.us.i.i, !llvm.loop !153

33:                                               ; preds = %9
  br i1 %or.cond.i16.i, label %.preheader.us.preheader.i17.i, label %_ZN2cv3hal12cpu_baselineL8mul_loopIaNS_12hal_baseline5v_regIaLi16EEEEEvPKT_mS8_mPS6_miiPKd.exit

.preheader.us.preheader.i17.i:                    ; preds = %33
  %wide.trip.count.i18.i = zext nneg i32 %6 to i64
  br label %.preheader.us.i19.i

.preheader.us.i19.i:                              ; preds = %._crit_edge.us.i24.i, %.preheader.us.preheader.i17.i
  %.in.i20.i = phi i32 [ %49, %._crit_edge.us.i24.i ], [ %7, %.preheader.us.preheader.i17.i ]
  %.01927.us.i.i = phi ptr [ %50, %._crit_edge.us.i24.i ], [ %0, %.preheader.us.preheader.i17.i ]
  %.02126.us.i.i = phi ptr [ %52, %._crit_edge.us.i24.i ], [ %4, %.preheader.us.preheader.i17.i ]
  %.02225.us.i.i = phi ptr [ %51, %._crit_edge.us.i24.i ], [ %2, %.preheader.us.preheader.i17.i ]
  br label %34

34:                                               ; preds = %34, %.preheader.us.i19.i
  %indvars.iv.i21.i = phi i64 [ 0, %.preheader.us.i19.i ], [ %indvars.iv.next.i22.i, %34 ]
  %35 = getelementptr inbounds i8, ptr %.01927.us.i.i, i64 %indvars.iv.i21.i
  %36 = load i8, ptr %35, align 1
  %37 = getelementptr inbounds i8, ptr %.02225.us.i.i, i64 %indvars.iv.i21.i
  %38 = load i8, ptr %37, align 1
  %39 = sitofp i8 %36 to float
  %40 = fmul float %11, %39
  %41 = sitofp i8 %38 to float
  %42 = fmul float %40, %41
  %43 = insertelement <4 x float> poison, float %42, i64 0
  %44 = call noundef i32 @llvm.x86.sse.cvtss2si(<4 x float> %43)
  %45 = call i32 @llvm.smax.i32(i32 %44, i32 -128)
  %46 = call i32 @llvm.smin.i32(i32 %45, i32 127)
  %47 = trunc nsw i32 %46 to i8
  %48 = getelementptr inbounds i8, ptr %.02126.us.i.i, i64 %indvars.iv.i21.i
  store i8 %47, ptr %48, align 1
  %indvars.iv.next.i22.i = add nuw nsw i64 %indvars.iv.i21.i, 1
  %exitcond.not.i23.i = icmp eq i64 %indvars.iv.next.i22.i, %wide.trip.count.i18.i
  br i1 %exitcond.not.i23.i, label %._crit_edge.us.i24.i, label %34, !llvm.loop !154

._crit_edge.us.i24.i:                             ; preds = %34
  %49 = add nsw i32 %.in.i20.i, -1
  %50 = getelementptr inbounds i8, ptr %.01927.us.i.i, i64 %1
  %51 = getelementptr inbounds i8, ptr %.02225.us.i.i, i64 %3
  %52 = getelementptr inbounds i8, ptr %.02126.us.i.i, i64 %5
  %.not.us.i25.i = icmp eq i32 %49, 0
  br i1 %.not.us.i25.i, label %_ZN2cv3hal12cpu_baselineL8mul_loopIaNS_12hal_baseline5v_regIaLi16EEEEEvPKT_mS8_mPS6_miiPKd.exit, label %.preheader.us.i19.i, !llvm.loop !155

_ZN2cv3hal12cpu_baselineL8mul_loopIaNS_12hal_baseline5v_regIaLi16EEEEEvPKT_mS8_mPS6_miiPKd.exit: ; preds = %._crit_edge.us.i.i, %._crit_edge.us.i24.i, %33, %16
  %53 = getelementptr inbounds i8, ptr %10, i64 8
  %54 = load i32, ptr %53, align 8
  %.not.i = icmp eq i32 %54, 0
  br i1 %.not.i, label %_ZN2cv5utils5trace7details6RegionD2Ev.exit, label %55

55:                                               ; preds = %_ZN2cv3hal12cpu_baselineL8mul_loopIaNS_12hal_baseline5v_regIaLi16EEEEEvPKT_mS8_mPS6_miiPKd.exit
  invoke void @_ZN2cv5utils5trace7details6Region7destroyEv(ptr noundef nonnull align 8 dereferenceable(12) %10)
          to label %_ZN2cv5utils5trace7details6RegionD2Ev.exit unwind label %56

56:                                               ; preds = %55
  %57 = landingpad { ptr, i32 }
          catch ptr null
  %58 = extractvalue { ptr, i32 } %57, 0
  call void @__clang_call_terminate(ptr %58) #11
  unreachable

_ZN2cv5utils5trace7details6RegionD2Ev.exit:       ; preds = %_ZN2cv3hal12cpu_baselineL8mul_loopIaNS_12hal_baseline5v_regIaLi16EEEEEvPKT_mS8_mPS6_miiPKd.exit, %55
  ret void
}